target datalayout = "e-m:e-p270:32:32-p271:32:32-p272:64:64-i64:64-i128:128-f80:128-n8:16:32:64-S128"
target triple = "x86_64-pc-linux-gnu"

%struct.TupleDescData = type { i32, i32, i32, i32, ptr, [0 x %struct.CompactAttribute] }
%struct.CompactAttribute = type { i32, i16, i8, i8, i8, i8, i8, i8, i8 }
%struct.FormData_pg_attribute = type { i32, %struct.nameData, i32, i16, i16, i32, i16, i8, i8, i8, i8, i8, i8, i8, i8, i8, i8, i8, i16, i32 }
%struct.nameData = type { [64 x i8] }

; Function Attrs: inlinehint nounwind uwtable
define internal ptr @TupleDescAttr(ptr noundef %0, i32 noundef %1) #2 {
  %3 = alloca ptr, align 8
  %4 = alloca i32, align 4
  %5 = alloca ptr, align 8
  store ptr %0, ptr %3, align 8
  store i32 %1, ptr %4, align 4
  call void @llvm.lifetime.start.p0(i64 8, ptr %5) #8
  %6 = load ptr, ptr %3, align 8
  %7 = load ptr, ptr %3, align 8
  %8 = getelementptr inbounds nuw %struct.TupleDescData, ptr %7, i32 0, i32 0
  %9 = load i32, ptr %8, align 8
  %10 = sext i32 %9 to i64
  %11 = mul i64 %10, 16
  %12 = add i64 24, %11
  %13 = getelementptr inbounds nuw i8, ptr %6, i64 %12
  store ptr %13, ptr %5, align 8
  %14 = load ptr, ptr %5, align 8
  %15 = load i32, ptr %4, align 4
  %16 = sext i32 %15 to i64
  %17 = getelementptr inbounds %struct.FormData_pg_attribute, ptr %14, i64 %16
  call void @llvm.lifetime.end.p0(i64 8, ptr %5) #8
  ret ptr %17
}

; Function Attrs: nounwind uwtable
define dso_local void @TupleDescCopy(ptr noundef %0, ptr noundef %1) #0 {
  %3 = alloca ptr, align 8
  %4 = alloca ptr, align 8
  %5 = alloca i32, align 4
  %6 = alloca ptr, align 8
  store ptr %0, ptr %3, align 8
  store ptr %1, ptr %4, align 8
  call void @llvm.lifetime.start.p0(i64 4, ptr %5) #8
  %7 = load ptr, ptr %3, align 8
  %8 = load ptr, ptr %4, align 8
  %9 = load ptr, ptr %4, align 8
  %10 = getelementptr inbounds nuw %struct.TupleDescData, ptr %9, i32 0, i32 0
  %11 = load i32, ptr %10, align 8
  %12 = sext i32 %11 to i64
  %13 = mul i64 %12, 16
  %14 = add i64 24, %13
  %15 = load ptr, ptr %4, align 8
  %16 = getelementptr inbounds nuw %struct.TupleDescData, ptr %15, i32 0, i32 0
  %17 = load i32, ptr %16, align 8
  %18 = sext i32 %17 to i64
  %19 = mul i64 %18, 100
  %20 = add i64 %14, %19
  call void @llvm.memcpy.p0.p0.i64(ptr align 8 %7, ptr align 8 %8, i64 %20, i1 false)
  store i32 0, ptr %5, align 4
  br label %21

21:                                               ; preds = %43, %2
  %22 = load i32, ptr %5, align 4
  %23 = load ptr, ptr %3, align 8
  %24 = getelementptr inbounds nuw %struct.TupleDescData, ptr %23, i32 0, i32 0
  %25 = load i32, ptr %24, align 8
  %26 = icmp slt i32 %22, %25
  br i1 %26, label %27, label %46

27:                                               ; preds = %21
  call void @llvm.lifetime.start.p0(i64 8, ptr %6) #8
  %28 = load ptr, ptr %3, align 8
  %29 = load i32, ptr %5, align 4
  %30 = call ptr @TupleDescAttr(ptr noundef %28, i32 noundef %29)
  store ptr %30, ptr %6, align 8
  %31 = load ptr, ptr %6, align 8
  %32 = getelementptr inbounds nuw %struct.FormData_pg_attribute, ptr %31, i32 0, i32 11
  store i8 0, ptr %32, align 2
  %33 = load ptr, ptr %6, align 8
  %34 = getelementptr inbounds nuw %struct.FormData_pg_attribute, ptr %33, i32 0, i32 12
  store i8 0, ptr %34, align 1
  %35 = load ptr, ptr %6, align 8
  %36 = getelementptr inbounds nuw %struct.FormData_pg_attribute, ptr %35, i32 0, i32 13
  store i8 0, ptr %36, align 4
  %37 = load ptr, ptr %6, align 8
  %38 = getelementptr inbounds nuw %struct.FormData_pg_attribute, ptr %37, i32 0, i32 14
  store i8 0, ptr %38, align 1
  %39 = load ptr, ptr %6, align 8
  %40 = getelementptr inbounds nuw %struct.FormData_pg_attribute, ptr %39, i32 0, i32 15
  store i8 0, ptr %40, align 2
  %41 = load ptr, ptr %3, align 8
  %42 = load i32, ptr %5, align 4
  call void @populate_compact_attribute(ptr noundef %41, i32 noundef %42)
  call void @llvm.lifetime.end.p0(i64 8, ptr %6) #8
  br label %43

43:                                               ; preds = %27
  %44 = load i32, ptr %5, align 4
  %45 = add i32 %44, 1
  store i32 %45, ptr %5, align 4
  br label %21, !llvm.loop !14

46:                                               ; preds = %21
  %47 = load ptr, ptr %3, align 8
  %48 = getelementptr inbounds nuw %struct.TupleDescData, ptr %47, i32 0, i32 4
  store ptr null, ptr %48, align 8
  %49 = load ptr, ptr %3, align 8
  %50 = getelementptr inbounds nuw %struct.TupleDescData, ptr %49, i32 0, i32 3
  store i32 -1, ptr %50, align 4
  call void @llvm.lifetime.end.p0(i64 4, ptr %5) #8
  ret void
}