; Function Attrs: nounwind uwtable
define dso_local void @TupleDescCopy(ptr noundef captures(none) %0, ptr noundef readonly captures(none) %1) local_unnamed_addr #0 {
  %3 = load i32, ptr %1, align 8
  %4 = sext i32 %3 to i64
  %reass.mul = mul nsw i64 %4, 116
  %5 = add nsw i64 %reass.mul, 24
  tail call void @llvm.memcpy.p0.p0.i64(ptr align 8 %0, ptr nonnull align 8 %1, i64 %5, i1 false)
  %invariant.gep = getelementptr i8, ptr %0, i64 24
  %6 = load i32, ptr %0, align 8
  %7 = icmp sgt i32 %6, 0
  br i1 %7, label %.lr.ph, label %._crit_edge

.lr.ph:                                           ; preds = %2, %.lr.ph
  %indvars.iv = phi i64 [ %indvars.iv.next, %.lr.ph ], [ 0, %2 ]
  %8 = phi i32 [ %13, %.lr.ph ], [ %6, %2 ]
  %9 = sext i32 %8 to i64
  %10 = shl nsw i64 %9, 4
  %gep = getelementptr i8, ptr %invariant.gep, i64 %10
  %11 = getelementptr inbounds nuw %struct.FormData_pg_attribute, ptr %gep, i64 %indvars.iv, i32 11
  %12 = trunc nuw nsw i64 %indvars.iv to i32
  tail call void @llvm.memset.p0.i64(ptr noundef nonnull align 2 dereferenceable(5) %11, i8 0, i64 5, i1 false)
  tail call void @populate_compact_attribute(ptr noundef nonnull %0, i32 noundef %12)
  %indvars.iv.next = add nuw nsw i64 %indvars.iv, 1
  %13 = load i32, ptr %0, align 8
  %14 = sext i32 %13 to i64
  %15 = icmp slt i64 %indvars.iv.next, %14
  br i1 %15, label %.lr.ph, label %._crit_edge, !llvm.loop !14

._crit_edge:                                      ; preds = %.lr.ph, %2
  %16 = getelementptr inbounds nuw i8, ptr %0, i64 16
  store ptr null, ptr %16, align 8
  %17 = getelementptr inbounds nuw i8, ptr %0, i64 12
  store i32 -1, ptr %17, align 4
  ret void
}